; Function Attrs: nounwind uwtable
define internal fastcc noalias nonnull ptr @_init_l_List_filterMapTR_go___at_Std_Tactic_BVDecide_LRAT_check___spec__2___closed__4() unnamed_addr #0 {
  %1 = load ptr, ptr @l_List_filterMapTR_go___at_Std_Tactic_BVDecide_LRAT_check___spec__2___closed__3, align 8, !tbaa !9
  tail call void @lean_inc_heartbeat() #4
  %2 = tail call noalias ptr @mi_malloc_small(i64 noundef 32) #4
  %3 = icmp eq ptr %2, null
  br i1 %3, label %4, label %lean_alloc_closure.exit

4:                                                ; preds = %0
  tail call void @lean_internal_panic_out_of_memory() #5
  unreachable

lean_alloc_closure.exit:                          ; preds = %0
  %5 = getelementptr inbounds nuw i8, ptr %2, i64 4
  store i32 1, ptr %2, align 4, !tbaa !4
  store i32 -184549344, ptr %5, align 4
  %6 = getelementptr inbounds nuw i8, ptr %2, i64 8
  store ptr @l_instBEqOfDecidableEq___rarg, ptr %6, align 8, !tbaa !9
  %7 = getelementptr inbounds nuw i8, ptr %2, i64 16
  store i16 3, ptr %7, align 8, !tbaa !14
  %8 = getelementptr inbounds nuw i8, ptr %2, i64 18
  store i16 1, ptr %8, align 2, !tbaa !14
  %9 = getelementptr inbounds nuw i8, ptr %2, i64 24
  store ptr %1, ptr %9, align 8, !tbaa !9
  ret ptr %2
}